target datalayout = "e-m:e-p270:32:32-p271:32:32-p272:64:64-i64:64-i128:128-f80:128-n8:16:32:64-S128"
target triple = "x86_64-pc-linux-gnu"

%struct._extcap_interface = type { ptr, ptr, ptr, ptr, ptr, i32 }

; Function Attrs: null_pointer_is_valid sspstrong uwtable
define internal void @extcap_free_interface(ptr noundef %0) #0 {
  %2 = alloca ptr, align 8
  %3 = alloca ptr, align 8
  %4 = alloca i32, align 4
  store ptr %0, ptr %2, align 8
  call void @llvm.lifetime.start.p0(i64 8, ptr %3) #9
  %5 = load ptr, ptr %2, align 8
  store ptr %5, ptr %3, align 8
  %6 = load ptr, ptr %2, align 8
  %7 = icmp eq ptr %6, null
  br i1 %7, label %8, label %9

8:                                                ; preds = %1
  store i32 1, ptr %4, align 4
  br label %26

9:                                                ; preds = %1
  %10 = load ptr, ptr %3, align 8
  %11 = getelementptr inbounds nuw %struct._extcap_interface, ptr %10, i32 0, i32 0
  %12 = load ptr, ptr %11, align 8
  call void @g_free(ptr noundef %12)
  %13 = load ptr, ptr %3, align 8
  %14 = getelementptr inbounds nuw %struct._extcap_interface, ptr %13, i32 0, i32 1
  %15 = load ptr, ptr %14, align 8
  call void @g_free(ptr noundef %15)
  %16 = load ptr, ptr %3, align 8
  %17 = getelementptr inbounds nuw %struct._extcap_interface, ptr %16, i32 0, i32 2
  %18 = load ptr, ptr %17, align 8
  call void @g_free(ptr noundef %18)
  %19 = load ptr, ptr %3, align 8
  %20 = getelementptr inbounds nuw %struct._extcap_interface, ptr %19, i32 0, i32 3
  %21 = load ptr, ptr %20, align 8
  call void @g_free(ptr noundef %21)
  %22 = load ptr, ptr %3, align 8
  %23 = getelementptr inbounds nuw %struct._extcap_interface, ptr %22, i32 0, i32 4
  %24 = load ptr, ptr %23, align 8
  call void @g_free(ptr noundef %24)
  %25 = load ptr, ptr %3, align 8
  call void @g_free(ptr noundef %25)
  store i32 0, ptr %4, align 4
  br label %26

26:                                               ; preds = %9, %8
  call void @llvm.lifetime.end.p0(i64 8, ptr %3) #9
  %27 = load i32, ptr %4, align 4
  switch i32 %27, label %29 [
    i32 0, label %28
    i32 1, label %28
  ]

28:                                               ; preds = %26, %26
  ret void

29:                                               ; preds = %26
  unreachable
}

; Function Attrs: null_pointer_is_valid sspstrong uwtable
define internal void @remove_extcap_entry(ptr noundef %0, ptr noundef %1) #0 {
  %3 = alloca ptr, align 8
  %4 = alloca ptr, align 8
  %5 = alloca ptr, align 8
  store ptr %0, ptr %3, align 8
  store ptr %1, ptr %4, align 8
  call void @llvm.lifetime.start.p0(i64 8, ptr %5) #9
  %6 = load ptr, ptr %3, align 8
  store ptr %6, ptr %5, align 8
  %7 = load ptr, ptr %5, align 8
  %8 = getelementptr inbounds nuw %struct._extcap_interface, ptr %7, i32 0, i32 5
  %9 = load i32, ptr %8, align 8
  %10 = icmp eq i32 %9, 3
  br i1 %10, label %11, label %13

11:                                               ; preds = %2
  %12 = load ptr, ptr %3, align 8
  call void @extcap_free_interface(ptr noundef %12)
  br label %13

13:                                               ; preds = %11, %2
  call void @llvm.lifetime.end.p0(i64 8, ptr %5) #9
  ret void
}