; Function Attrs: null_pointer_is_valid sspstrong uwtable
define internal void @remove_extcap_entry(ptr noundef %0, ptr readnone captures(none) %1) #0 {
  %3 = getelementptr inbounds nuw i8, ptr %0, i64 40
  %4 = load i32, ptr %3, align 8
  %5 = icmp ne i32 %4, 3
  %6 = icmp eq ptr %0, null
  %or.cond = or i1 %6, %5
  br i1 %or.cond, label %extcap_free_interface.exit, label %7

7:                                                ; preds = %2
  %8 = load ptr, ptr %0, align 8
  tail call void @g_free(ptr noundef %8)
  %9 = getelementptr inbounds nuw i8, ptr %0, i64 8
  %10 = load ptr, ptr %9, align 8
  tail call void @g_free(ptr noundef %10)
  %11 = getelementptr inbounds nuw i8, ptr %0, i64 16
  %12 = load ptr, ptr %11, align 8
  tail call void @g_free(ptr noundef %12)
  %13 = getelementptr inbounds nuw i8, ptr %0, i64 24
  %14 = load ptr, ptr %13, align 8
  tail call void @g_free(ptr noundef %14)
  %15 = getelementptr inbounds nuw i8, ptr %0, i64 32
  %16 = load ptr, ptr %15, align 8
  tail call void @g_free(ptr noundef %16)
  tail call void @g_free(ptr noundef nonnull %0)
  br label %extcap_free_interface.exit

extcap_free_interface.exit:                       ; preds = %7, %2
  ret void
}